
 Start  Stop   Length Name                   Class            Group
 00000H 077CAH 077CBH CODE                   CODE

 Origin   Group

  Address         Publics by Value

 0000:011A       SCDATA
 0000:051C       SEC_ID_TBL1
 0000:0CE2       PRINCESS_PROC
 0000:0D10       GETARG
 0000:0E30       PRNAH
 0000:0E6B       PRINT
 0000:0E82       DECSTR
 0000:0EB9       INPUT
 0000:0EF0       STRDEC
 0000:0F2A       HEXSTR
 0000:0F6C       STRHEX
 0000:0F99       BINSTR
 0000:0FC5       STRBIN
 0000:0FE2       STRCMP
 0000:0FF4       CLS
 0000:1007       CSLON
 0000:100E       CSLOFF
 0000:1015       INPCHR
 0000:1020       CHPUT
 0000:102E       KESCAP
 0000:1070       KEYLOD
 0000:1087       PRNAB
 0000:109B       LOCATE
 0000:109C       LFPRN
 0000:10A5       D10STR
 0000:10EA       STRZTS
 0000:1106       STRSPL
 0000:113E       CRTOFF
 0000:1140       INPUTOFF
 0000:1290       SCWINI
 0000:12A3       SCWSET
 0000:12C1       SCWSEQ
 0000:1321       SCWRED
 0000:1381       SCWDRV
 0000:14D0       MENU_YESNO
 0000:14EF       MENU_FORMATSTART
 0000:1519       WIDDISK
 0000:154E       USER_SHOT
 0000:157F       MUSREDX
 0000:1594       MUSWATX
 0000:15B3       TIMER
 0000:15E3       UDISK_LOAD
 0000:15FC       UDISK_SAVE
 0000:1637       DISKRESET
 0000:164D       DISKFREE
 0000:166C       DISKFLCHK
 0000:169C       WSHIFTDRV
 0000:16AA       WFUNCADRS
 0000:16B8       WWIDSLC2
 0000:1742       WIDSNM
 0000:1750       USERDISK
 0000:1A06       USER_D_CURRENT
 0000:1A08       USER_D_FUNCTION
 0000:1AE0       DLINEH
 0000:1C36       DLINEV
 0000:1CE0       WIDDLOAD
 0000:1D0D       WIDDSAVE
 0000:232B       ARAVRM
 0000:233C       SSDEST
 0000:233E       SSDES0
 0000:2340       SSDES1
 0000:2342       SSDES2
 0000:2344       SSDES3
 0000:2346       SSSOUR
 0000:2348       SSSOU0
 0000:234A       SSSOU1
 0000:234C       SSSOU2
 0000:234E       SSSOU3
 0000:2350       SSEFCT
 0000:2352       SSEFC0
 0000:2354       SSEFC1
 0000:2356       SSEFC2
 0000:2358       SSEFC3
 0000:235A       WDXX
 0000:235C       WDYY
 0000:235E       WDX1
 0000:2360       WDY1
 0000:2362       WDX2
 0000:2364       WDY2
 0000:2366       VX1
 0000:2368       VY1
 0000:236A       VX2
 0000:236C       VY2
 0000:236E       VX3
 0000:2370       VY3
 0000:2372       ADRS
 0000:2374       NUM
 0000:2376       VCOL
 0000:2400       BOXPAL
 0000:245D       BOXMSS
 0000:24AA       BOXNOT
 0000:24DF       BOXMSU
 0000:2548       BOXPAI
 0000:258D       BOXBLK
 0000:25D2       BOXNTS
 0000:2622       VTXPRN
 0000:262C       VTXPOR
 0000:2636       VTXPFC
 0000:2750       VTXSIZ
 0000:2881       VTXCOL
 0000:2F7E       SEGVT0
 0000:2F80       SEGVT1
 0000:2F82       SEGVT2
 0000:2F84       SEGVT3
 0000:2F86       VTXJCD
 0000:30AC       IN_7220_GDC_PORT
 0000:30AE       OUT_7220_GDC_PORT
 0000:30B0       IN_8259_PORT
 0000:30B2       OUT_8259_PORT
 0000:30B4       IN_8255_PORT
 0000:30B6       OUT_8255_PORT
 0000:30B8       IN_8251_PORT
 0000:30BA       OUT_8251_PORT
 0000:30C0       DKFDNO
 0000:30C6       DKFREE
 0000:30EE       DKFORM
 0000:311A       DKF2ND
 0000:3254       DKFPSI
 0000:4450       DKCSET
 0000:44A6       DKCIDW
 0000:50D0       FDDOOR
 0000:532C       SCADRS
 0000:532E       SCDATA2
 0000:5794       USER_ST_BREAK
 0000:57A0       DISKMX
 0000:57EB       DISKFL
 0000:588C       MTRX_XX
 0000:588E       MTRX_YY
 0000:5890       MXFLNAME
 0000:58AC       MTRX_ADRS
 0000:58C0       MSCSRT
 0000:58E0       MSCSTP
 0000:58EA       MSCMOV
 0000:5930       MSCWAT
 0000:5937       MSCSTS
 0000:593B       MSCPNT
 0000:6120       MUSINI
 0000:6133       MUSRED
 0000:6155       MUSSTP
 0000:6166       MUSWAT
 0000:63E0       PAT32PUT
 0000:63E7       PAT32VRAM_SAVE
 0000:63EB       PAT32VRAM_LOAD
 0000:6678       CURNUM
 0000:667A       CURX
 0000:667C       CURY
 0000:73B0       MITPRN
 0000:73C5       MITCOL
 0000:74C7       FONT_COLOR
 0000:74CB       FONT_TABLE
